Certificate:
    Data:
        Version: 3 (0x2)
        Serial Number: 9368 (0x2498)
    Signature Algorithm: sha256WithRSAEncryption
        Issuer: C=AU, ST=ACT, L=Canberra, O=Exobrain, OU=Testing, CN=CA
        Validity
            Not Before: Dec 13 13:12:03 2016 GMT
            Not After : Dec 13 13:12:03 2017 GMT
        Subject: C=AU, ST=ACT, O=Exobrain, OU=Testing, CN=display
        Subject Public Key Info:
            Public Key Algorithm: rsaEncryption
                Public-Key: (2048 bit)
                Modulus:
                    00:92:16:bf:d4:fd:1b:47:11:5d:08:08:14:e0:47:
                    9f:fa:43:d8:aa:c5:b3:04:ff:9d:ed:3e:ce:04:0a:
                    39:c9:56:22:84:e6:ef:48:7f:f7:44:d3:c1:a3:98:
                    6f:25:52:80:e0:99:e9:8d:ee:4c:e7:b3:50:22:16:
                    30:46:2f:2c:85:f0:aa:0a:b5:15:9e:cc:c2:8e:d8:
                    bf:ab:c3:26:89:77:e6:ac:71:98:ee:af:64:da:17:
                    fb:5f:66:c0:6a:bd:89:e2:c1:22:2b:ec:87:1a:8f:
                    11:68:3a:9e:83:6c:ed:f6:1e:ed:06:a2:72:fc:8a:
                    3f:0a:76:ce:62:ca:33:8f:a4:17:cf:a6:e1:cc:b5:
                    42:32:bb:10:7e:55:78:b7:0d:89:c7:a9:2d:09:d7:
                    fe:25:5c:f8:01:84:44:95:a7:29:70:a0:29:36:74:
                    95:e3:6f:b4:10:9a:a9:ff:73:be:7d:11:3f:00:2d:
                    17:5e:84:15:07:87:9c:5b:88:57:43:63:9f:5f:37:
                    aa:89:dd:e0:c3:e6:ab:34:90:c6:5c:42:ae:c4:43:
                    28:44:1b:a2:58:f0:d3:b1:fd:6e:90:e4:ea:a4:8e:
                    a5:87:b4:2d:c3:5e:a8:57:2f:e0:bf:77:4a:54:28:
                    4c:28:30:b2:60:b6:a1:3c:33:50:07:ea:d2:8c:33:
                    78:25
                Exponent: 65537 (0x10001)
        X509v3 extensions:
            X509v3 Basic Constraints: 
                CA:FALSE
            X509v3 Key Usage: 
                Digital Signature, Key Encipherment, Data Encipherment, Key Agreement
            X509v3 Extended Key Usage: 
                TLS Web Client Authentication, TLS Web Server Authentication
            X509v3 Subject Alternative Name: 
                IP Address:192.168.0.104
    Signature Algorithm: sha256WithRSAEncryption
         0c:82:3a:58:38:90:06:42:8a:f5:23:71:73:4e:df:bb:fe:11:
         87:f8:06:3c:3e:ff:02:ca:c6:2b:6a:f9:53:e3:14:bb:14:b3:
         d1:f3:f3:1b:36:36:60:dd:57:d6:fa:d6:ed:d0:21:83:0e:96:
         03:9b:f6:10:cd:f8:90:af:5a:57:11:c0:a3:42:fd:a5:d8:ac:
         cb:33:4b:fc:bf:d5:2c:ac:06:16:7d:bf:22:c1:e2:5a:4d:e1:
         16:9c:67:4b:75:e7:e8:25:61:20:30:1d:0e:0c:0f:ec:66:6b:
         a3:bd:8e:82:c6:0f:52:b3:81:07:8d:74:b8:d6:2c:b8:a7:aa:
         c5:ff:2e:9f:3b:1f:b5:10:9f:45:92:a3:90:37:c4:c9:1b:00:
         a9:39:75:7e:6b:36:38:64:2a:e8:99:0e:4f:56:23:9d:0c:4f:
         bf:3b:e4:62:c3:c1:3e:ba:6c:45:c5:61:56:f4:c3:3e:8e:d9:
         d9:60:9c:bb:eb:e8:1f:2e:02:25:93:fc:91:1b:a9:2a:b1:cd:
         14:a8:52:8d:c1:33:ad:d1:86:91:00:29:8c:55:67:38:5a:4c:
         d1:28:0b:e5:40:45:82:b1:00:b1:68:6c:0d:26:8a:74:0b:ce:
         c5:a6:56:48:8c:1c:74:98:41:23:dd:f0:c4:01:7b:f8:d7:e9:
         e6:5b:f5:ef:c0:7a:81:5e:78:cc:c7:3a:71:66:3e:1b:d2:99:
         a5:8b:d8:e1:00:86:e6:a8:18:72:55:14:60:3b:7f:77:e6:64:
         fa:c5:00:51:21:eb:8b:1e:ea:da:38:09:62:cd:f6:eb:2a:40:
         93:33:a0:43:0c:9b:22:ee:16:ce:b6:92:cb:a8:c1:c8:ef:a0:
         c0:e4:91:fc:c0:ea:a3:79:0f:f8:53:ee:e5:95:09:bc:40:29:
         15:88:e0:6c:7e:cf:54:01:2b:8e:35:fa:1b:ca:e4:71:a1:3b:
         c2:f3:d5:c8:72:d5:70:68:8b:de:c0:b4:44:89:3a:1e:72:92:
         1f:3e:4e:81:40:3f:0d:19:3f:58:f3:3a:f5:ad:9e:61:8d:8f:
         e9:40:70:b6:ac:7e:51:8e:1a:c3:7e:b2:1e:3f:3f:a6:7a:53:
         96:b1:9d:25:92:ad:e5:33:7e:4f:1b:28:fb:c0:3c:ca:7f:0f:
         0c:90:7f:c6:e2:44:26:d9:23:8c:bd:e2:6b:35:d5:40:ff:69:
         21:dc:88:73:46:64:06:9e:26:59:8d:f7:13:5d:09:0d:23:25:
         24:81:75:b3:d4:c0:67:0b:b6:17:ec:d7:f2:a3:cf:12:57:68:
         aa:26:cc:00:ad:43:c9:91:fa:87:86:dc:41:bf:68:86:19:6a:
         5a:1e:34:a8:4b:d3:0d:f6
-----BEGIN CERTIFICATE-----
MIIEeDCCAmCgAwIBAgICJJgwDQYJKoZIhvcNAQELBQAwYDELMAkGA1UEBhMCQVUx
DDAKBgNVBAgMA0FDVDERMA8GA1UEBwwIQ2FuYmVycmExETAPBgNVBAoMCEV4b2Jy
YWluMRAwDgYDVQQLDAdUZXN0aW5nMQswCQYDVQQDDAJDQTAeFw0xNjEyMTMxMzEy
MDNaFw0xNzEyMTMxMzEyMDNaMFIxCzAJBgNVBAYTAkFVMQwwCgYDVQQIDANBQ1Qx
ETAPBgNVBAoMCEV4b2JyYWluMRAwDgYDVQQLDAdUZXN0aW5nMRAwDgYDVQQDDAdk
aXNwbGF5MIIBIjANBgkqhkiG9w0BAQEFAAOCAQ8AMIIBCgKCAQEAkha/1P0bRxFd
CAgU4Eef+kPYqsWzBP+d7T7OBAo5yVYihObvSH/3RNPBo5hvJVKA4Jnpje5M57NQ
IhYwRi8shfCqCrUVnszCjti/q8MmiXfmrHGY7q9k2hf7X2bAar2J4sEiK+yHGo8R
aDqeg2zt9h7tBqJy/Io/CnbOYsozj6QXz6bhzLVCMrsQflV4tw2Jx6ktCdf+JVz4
AYRElacpcKApNnSV42+0EJqp/3O+fRE/AC0XXoQVB4ecW4hXQ2OfXzeqid3gw+ar
NJDGXEKuxEMoRBuiWPDTsf1ukOTqpI6lh7Qtw16oVy/gv3dKVChMKDCyYLahPDNQ
B+rSjDN4JQIDAQABo0owSDAJBgNVHRMEAjAAMAsGA1UdDwQEAwIDuDAdBgNVHSUE
FjAUBggrBgEFBQcDAgYIKwYBBQUHAwEwDwYDVR0RBAgwBocEwKgAaDANBgkqhkiG
9w0BAQsFAAOCAgEADII6WDiQBkKK9SNxc07fu/4Rh/gGPD7/AsrGK2r5U+MUuxSz
0fPzGzY2YN1X1vrW7dAhgw6WA5v2EM34kK9aVxHAo0L9pdisyzNL/L/VLKwGFn2/
IsHiWk3hFpxnS3Xn6CVhIDAdDgwP7GZro72OgsYPUrOBB410uNYsuKeqxf8unzsf
tRCfRZKjkDfEyRsAqTl1fms2OGQq6JkOT1YjnQxPvzvkYsPBPrpsRcVhVvTDPo7Z
2WCcu+voHy4CJZP8kRupKrHNFKhSjcEzrdGGkQApjFVnOFpM0SgL5UBFgrEAsWhs
DSaKdAvOxaZWSIwcdJhBI93wxAF7+Nfp5lv178B6gV54zMc6cWY+G9KZpYvY4QCG
5qgYclUUYDt/d+Zk+sUAUSHrix7q2jgJYs326ypAkzOgQwybIu4WzraSy6jByO+g
wOSR/MDqo3kP+FPu5ZUJvEApFYjgbH7PVAErjjX6G8rkcaE7wvPVyHLVcGiL3sC0
RIk6HnKSHz5OgUA/DRk/WPM69a2eYY2P6UBwtqx+UY4aw36yHj8/pnpTlrGdJZKt
5TN+Txso+8A8yn8PDJB/xuJEJtkjjL3iazXVQP9pIdyIc0ZkBp4mWY33E10JDSMl
JIF1s9TAZwu2F+zX8qPPEldoqibMAK1DyZH6h4bcQb9ohhlqWh40qEvTDfY=
-----END CERTIFICATE-----
