Certificate:
    Data:
        Version: 3 (0x2)
        Serial Number: 33057 (0x8121)
    Signature Algorithm: sha256WithRSAEncryption
        Issuer: C=AU, ST=ACT, L=Canberra, O=Exobrain Test, OU=Test, CN=Exobrain Test Root
        Validity
            Not Before: Nov  8 11:23:18 2016 GMT
            Not After : Nov  6 11:23:18 2026 GMT
        Subject: C=AU, ST=ACT, O=Exobrain Test, OU=Test, CN=display
        Subject Public Key Info:
            Public Key Algorithm: rsaEncryption
                Public-Key: (2048 bit)
                Modulus:
                    00:d0:1d:ff:17:8e:b7:26:c3:95:9f:57:36:8e:e3:
                    e1:07:64:4e:e5:65:15:a4:e4:12:77:d8:45:ac:3c:
                    6e:3e:cb:f6:3e:18:a7:9a:9b:19:01:b2:6f:6c:2f:
                    93:e2:cb:14:bf:a9:e3:fd:62:6b:8a:7b:76:28:c6:
                    d5:2e:4b:21:0f:f8:25:b0:04:80:cf:dd:cb:91:da:
                    15:f5:23:13:b4:5a:58:4c:3f:4f:68:62:1e:3b:f9:
                    2d:42:c8:dd:18:c1:3e:ea:28:1c:f9:e4:ff:64:6c:
                    62:4e:8c:6a:9f:63:77:5e:51:78:a5:9c:99:ec:11:
                    ab:ad:87:6c:c8:ca:59:5b:77:57:53:2d:61:53:9f:
                    d3:59:b1:a3:13:6d:36:6a:15:f3:5b:2b:b6:e1:a0:
                    5b:c5:a0:f9:c7:e5:33:4d:da:29:e9:a1:fc:c4:9e:
                    c4:66:09:22:c5:63:ce:25:26:ff:22:81:9b:93:db:
                    06:74:d7:e6:71:12:68:02:b6:29:fa:51:c1:30:5c:
                    9f:ad:7a:fe:94:71:b1:ea:fb:81:66:91:1d:52:99:
                    ad:6a:38:b8:0b:d0:50:d5:ac:71:01:ae:c3:a8:d3:
                    bb:5d:df:fa:7f:e7:51:4d:cd:e5:a3:e8:a2:dc:dc:
                    98:04:1e:67:34:ed:e2:b6:27:31:64:bd:0f:75:24:
                    f2:d9
                Exponent: 65537 (0x10001)
        X509v3 extensions:
            X509v3 Basic Constraints: 
                CA:FALSE
            Netscape Comment: 
                OpenSSL Generated Certificate
            X509v3 Subject Key Identifier: 
                3D:C0:DA:90:E2:BD:2C:37:EF:D6:6D:7D:22:82:50:31:B3:87:5D:63
            X509v3 Authority Key Identifier: 
                keyid:96:78:E7:19:82:B8:DC:FC:6E:57:04:3B:DC:0A:4D:7F:DF:95:4B:90

    Signature Algorithm: sha256WithRSAEncryption
         55:75:35:ce:69:ea:a1:42:73:6f:0d:2c:66:e5:20:93:20:f6:
         94:c7:af:ed:07:82:e3:13:d0:2b:f9:e9:2b:5f:ee:26:2f:bf:
         83:59:07:59:3a:4f:3c:c0:3c:62:c9:32:08:e7:3b:a5:83:51:
         83:d7:8a:4e:0a:83:ad:bd:64:6a:39:9e:6c:53:62:fa:88:4d:
         dc:75:41:d4:1a:29:0a:ab:03:dc:f4:4c:22:1e:06:e0:a0:d5:
         ff:1b:b0:71:85:27:00:9f:8c:5e:e0:e5:fc:50:4a:22:e0:74:
         c9:6e:95:34:6b:0a:54:b2:4c:a5:8e:6d:18:41:6b:9b:1e:8a:
         71:fc:5c:56:f4:45:8a:88:f5:d9:9a:f5:e2:88:a9:7f:99:3b:
         de:b8:3b:c1:f8:52:14:10:8b:d0:1e:75:cc:db:f8:f8:e6:d5:
         9a:4b:30:5f:04:4d:1a:f0:fe:b7:bd:1a:5a:72:76:7a:b1:30:
         42:fe:a5:e3:dc:44:4f:42:9b:2f:21:a8:26:a3:65:54:66:2e:
         39:8e:d0:3b:fb:ae:db:56:2b:a4:7b:34:9f:db:2f:2f:99:36:
         95:d3:09:39:8a:f5:3c:00:49:2d:57:66:7f:65:ee:ae:09:5a:
         18:a4:7a:61:aa:4a:60:33:18:e7:49:f4:86:f9:37:c8:c2:28:
         8a:bb:3e:62:f7:ce:db:15:93:a9:3d:b2:a7:d2:70:03:50:fc:
         aa:a4:36:ae:59:d7:93:c6:ea:8d:1e:66:97:05:8e:39:0b:13:
         9d:c1:2c:98:eb:9d:91:c1:32:29:e2:56:3c:62:d2:21:60:c6:
         2f:88:91:a6:e4:95:ed:c1:ff:b1:d0:4a:da:fd:83:b9:b8:dc:
         ba:22:02:18:9c:31:d3:48:18:c0:05:ac:e1:fd:df:79:65:74:
         e1:ff:35:71:d1:a2:fa:1e:f8:be:7b:82:13:86:4f:4f:36:e2:
         ca:1e:58:ac:4b:60:c4:6c:17:51:89:4d:ee:94:fe:09:76:84:
         5a:1f:11:16:17:6f:3d:42:68:e0:0f:f1:08:e0:6e:ba:58:85:
         f9:50:d9:89:3b:d7:9f:7b:8e:9f:28:de:03:95:d3:f7:ca:4f:
         7f:35:c9:f9:ba:9d:b4:6b:4b:2e:04:ab:b3:45:0a:b7:fb:dc:
         00:8c:13:4b:4e:b2:ca:c5:6a:d8:13:93:44:eb:b1:a6:e4:97:
         f7:a0:52:cd:7b:6a:14:e9:78:8f:64:51:3b:65:c6:41:1e:aa:
         52:86:20:30:ed:d2:ec:16:f2:20:45:a3:b8:2a:ad:3a:77:6c:
         7a:35:d9:0f:c1:0f:2e:ec:4c:d8:7d:ce:4c:f6:5c:ea:19:c6:
         a0:01:b7:4f:32:5c:e9:56
-----BEGIN CERTIFICATE-----
MIIEvjCCAqagAwIBAgIDAIEhMA0GCSqGSIb3DQEBCwUAMHIxCzAJBgNVBAYTAkFV
MQwwCgYDVQQIDANBQ1QxETAPBgNVBAcMCENhbmJlcnJhMRYwFAYDVQQKDA1FeG9i
cmFpbiBUZXN0MQ0wCwYDVQQLDARUZXN0MRswGQYDVQQDDBJFeG9icmFpbiBUZXN0
IFJvb3QwHhcNMTYxMTA4MTEyMzE4WhcNMjYxMTA2MTEyMzE4WjBUMQswCQYDVQQG
EwJBVTEMMAoGA1UECAwDQUNUMRYwFAYDVQQKDA1FeG9icmFpbiBUZXN0MQ0wCwYD
VQQLDARUZXN0MRAwDgYDVQQDDAdkaXNwbGF5MIIBIjANBgkqhkiG9w0BAQEFAAOC
AQ8AMIIBCgKCAQEA0B3/F463JsOVn1c2juPhB2RO5WUVpOQSd9hFrDxuPsv2Phin
mpsZAbJvbC+T4ssUv6nj/WJrint2KMbVLkshD/glsASAz93LkdoV9SMTtFpYTD9P
aGIeO/ktQsjdGME+6igc+eT/ZGxiToxqn2N3XlF4pZyZ7BGrrYdsyMpZW3dXUy1h
U5/TWbGjE202ahXzWyu24aBbxaD5x+UzTdop6aH8xJ7EZgkixWPOJSb/IoGbk9sG
dNfmcRJoArYp+lHBMFyfrXr+lHGx6vuBZpEdUpmtaji4C9BQ1axxAa7DqNO7Xd/6
f+dRTc3lo+ii3NyYBB5nNO3iticxZL0PdSTy2QIDAQABo3sweTAJBgNVHRMEAjAA
MCwGCWCGSAGG+EIBDQQfFh1PcGVuU1NMIEdlbmVyYXRlZCBDZXJ0aWZpY2F0ZTAd
BgNVHQ4EFgQUPcDakOK9LDfv1m19IoJQMbOHXWMwHwYDVR0jBBgwFoAUlnjnGYK4
3PxuVwQ73ApNf9+VS5AwDQYJKoZIhvcNAQELBQADggIBAFV1Nc5p6qFCc28NLGbl
IJMg9pTHr+0HguMT0Cv56Stf7iYvv4NZB1k6TzzAPGLJMgjnO6WDUYPXik4Kg629
ZGo5nmxTYvqITdx1QdQaKQqrA9z0TCIeBuCg1f8bsHGFJwCfjF7g5fxQSiLgdMlu
lTRrClSyTKWObRhBa5seinH8XFb0RYqI9dma9eKIqX+ZO964O8H4UhQQi9Aedczb
+Pjm1ZpLMF8ETRrw/re9GlpydnqxMEL+pePcRE9Cmy8hqCajZVRmLjmO0Dv7rttW
K6R7NJ/bLy+ZNpXTCTmK9TwASS1XZn9l7q4JWhikemGqSmAzGOdJ9Ib5N8jCKIq7
PmL3ztsVk6k9sqfScANQ/KqkNq5Z15PG6o0eZpcFjjkLE53BLJjrnZHBMiniVjxi
0iFgxi+Ikabkle3B/7HQStr9g7m43LoiAhicMdNIGMAFrOH933lldOH/NXHRovoe
+L57ghOGT0824soeWKxLYMRsF1GJTe6U/gl2hFofERYXbz1CaOAP8QjgbrpYhflQ
2Yk71597jp8o3gOV0/fKT381yfm6nbRrSy4Eq7NFCrf73ACME0tOssrFatgTk0Tr
sabkl/egUs17ahTpeI9kUTtlxkEeqlKGIDDt0uwW8iBFo7gqrTp3bHo12Q/BDy7s
TNh9zkz2XOoZxqABt08yXOlW
-----END CERTIFICATE-----
