Certificate:
    Data:
        Version: 3 (0x2)
        Serial Number: 11559 (0x2d27)
    Signature Algorithm: sha256WithRSAEncryption
        Issuer: C=AU, ST=ACT, L=Canberra, O=Exobrain, OU=Testing, CN=CA
        Validity
            Not Before: Dec 13 13:12:03 2016 GMT
            Not After : Dec 13 13:12:03 2017 GMT
        Subject: C=AU, ST=ACT, O=Exobrain, OU=Testing, CN=display_from_server
        Subject Public Key Info:
            Public Key Algorithm: rsaEncryption
                Public-Key: (2048 bit)
                Modulus:
                    00:c7:3c:c0:d3:db:f5:a2:9b:84:2e:84:67:5a:0a:
                    33:c4:02:02:02:c4:7f:c4:22:e4:3a:cb:d8:af:05:
                    76:49:52:55:bc:79:b8:71:78:7b:f4:8d:e5:c8:48:
                    59:84:48:86:c4:de:2a:f7:61:ed:c4:39:2a:d2:7e:
                    af:4d:8e:89:c3:3d:59:44:e9:20:9a:51:63:7a:4a:
                    d3:49:f7:2a:b2:3f:5f:3a:5d:40:e2:76:0f:cb:aa:
                    14:37:1b:39:16:62:c5:86:74:4d:dc:07:5b:65:38:
                    38:b0:98:b3:a3:7b:96:cb:1a:36:c9:0b:42:e4:63:
                    9d:fa:e9:a4:0d:d4:68:b0:91:f9:f9:70:34:83:fa:
                    e3:8c:91:a4:2c:51:9b:d1:1c:61:4c:20:e7:1a:01:
                    a3:ec:56:d4:78:c3:03:87:4b:57:65:2c:b5:0c:9f:
                    d8:ed:a8:52:84:e7:a9:96:c4:af:f2:eb:d7:e7:2e:
                    9e:04:47:bd:55:30:dc:80:44:40:10:15:09:4b:8e:
                    27:49:dc:39:89:a1:6d:31:da:f4:bb:97:f4:41:1a:
                    28:ca:86:7c:58:21:88:04:d6:67:ee:27:66:e3:2c:
                    49:79:98:02:b8:7d:81:63:fe:f6:ad:26:b3:a1:db:
                    b3:1f:71:77:83:7a:5e:7e:5e:bd:b7:0c:59:15:6f:
                    44:4d
                Exponent: 65537 (0x10001)
        X509v3 extensions:
            X509v3 Basic Constraints: 
                CA:FALSE
            X509v3 Key Usage: 
                Digital Signature, Key Encipherment, Data Encipherment, Key Agreement
            X509v3 Extended Key Usage: 
                TLS Web Server Authentication
            X509v3 Subject Alternative Name: 
                IP Address:192.168.0.104
    Signature Algorithm: sha256WithRSAEncryption
         74:df:57:0b:fd:0e:65:df:5b:02:1f:ae:4d:d1:bf:4d:13:d0:
         aa:a4:f4:b3:54:b3:bc:19:68:64:c1:60:fc:8c:61:ca:b9:52:
         d6:4a:04:08:ed:20:1f:12:df:a4:15:8c:82:15:d4:dc:80:90:
         5f:87:6b:52:e8:f4:60:e4:89:f7:ba:6a:f9:e4:ee:0b:b4:4f:
         48:8e:07:94:5c:73:42:54:6a:5b:6a:2b:b5:b8:09:c6:82:a1:
         8d:c2:96:1f:08:11:bb:cb:9c:4a:55:40:1d:40:08:09:ec:5c:
         55:d4:96:62:4a:d3:bd:1a:ae:e3:2b:ec:b6:40:38:62:c5:5f:
         ac:71:c5:9e:2c:fc:0a:61:8f:9c:1b:44:82:32:80:2e:3c:2a:
         6e:e0:45:ea:2a:cc:c2:59:83:fa:9d:fb:12:eb:58:6e:c9:ba:
         16:25:36:c1:77:b9:9e:7b:87:15:1d:4a:75:14:36:d7:17:7a:
         ab:aa:60:3e:c9:e7:76:a3:87:e5:2c:65:65:e7:a2:c0:71:45:
         f1:3a:f3:b3:8a:98:68:90:91:90:8d:55:7d:60:dd:a0:e9:5e:
         46:4e:6a:7a:2f:66:9b:15:61:5c:3b:30:82:e3:93:56:12:ec:
         d3:aa:97:05:c4:bf:29:19:5f:ba:b6:1a:57:bb:2b:58:15:4f:
         03:50:21:84:d9:a2:c1:7d:8c:40:ff:4b:6e:a4:ba:b5:03:e7:
         f2:e0:10:b6:ba:8c:6a:4c:a4:66:86:e8:ca:cc:c4:db:aa:04:
         58:e2:58:7e:18:c5:a0:a1:a8:b6:34:65:14:a2:84:b9:81:7c:
         c6:e7:fa:93:73:a9:0e:59:53:c6:9f:4e:a8:87:98:52:23:ca:
         8b:95:7c:b3:bb:26:93:ef:14:3f:d5:f5:55:39:38:28:d3:9a:
         b4:c4:1c:92:2d:fa:ce:d5:6e:35:ca:b7:d0:3f:10:36:f9:ff:
         96:64:0e:0a:8c:8e:d2:c3:91:57:60:bd:e5:bc:14:ae:28:24:
         b7:2d:4f:61:83:c3:3f:f1:b3:67:4d:94:d3:af:a6:14:4e:14:
         26:01:33:46:49:9a:bf:fa:ff:d5:de:20:b7:62:d2:ef:a2:28:
         bb:2e:64:08:e5:5a:d5:6d:be:5a:cf:0c:da:82:58:c1:b8:bb:
         49:a2:fa:bb:a9:6b:26:07:d6:a4:d6:58:4c:8f:4f:34:62:2c:
         50:88:7d:12:ab:f6:5f:b1:8f:47:ff:cd:bf:da:82:13:fc:95:
         75:8d:eb:2d:94:4f:32:f1:ef:d9:0c:c5:41:98:f6:ab:b7:c9:
         30:83:b0:e6:ad:4c:e1:d1:61:59:5f:9a:13:0a:d5:21:ff:6a:
         e4:57:08:4c:88:b5:e5:0c
-----BEGIN CERTIFICATE-----
MIIEejCCAmKgAwIBAgICLScwDQYJKoZIhvcNAQELBQAwYDELMAkGA1UEBhMCQVUx
DDAKBgNVBAgMA0FDVDERMA8GA1UEBwwIQ2FuYmVycmExETAPBgNVBAoMCEV4b2Jy
YWluMRAwDgYDVQQLDAdUZXN0aW5nMQswCQYDVQQDDAJDQTAeFw0xNjEyMTMxMzEy
MDNaFw0xNzEyMTMxMzEyMDNaMF4xCzAJBgNVBAYTAkFVMQwwCgYDVQQIDANBQ1Qx
ETAPBgNVBAoMCEV4b2JyYWluMRAwDgYDVQQLDAdUZXN0aW5nMRwwGgYDVQQDDBNk
aXNwbGF5X2Zyb21fc2VydmVyMIIBIjANBgkqhkiG9w0BAQEFAAOCAQ8AMIIBCgKC
AQEAxzzA09v1opuELoRnWgozxAICAsR/xCLkOsvYrwV2SVJVvHm4cXh79I3lyEhZ
hEiGxN4q92HtxDkq0n6vTY6Jwz1ZROkgmlFjekrTSfcqsj9fOl1A4nYPy6oUNxs5
FmLFhnRN3AdbZTg4sJizo3uWyxo2yQtC5GOd+umkDdRosJH5+XA0g/rjjJGkLFGb
0RxhTCDnGgGj7FbUeMMDh0tXZSy1DJ/Y7ahShOeplsSv8uvX5y6eBEe9VTDcgERA
EBUJS44nSdw5iaFtMdr0u5f0QRooyoZ8WCGIBNZn7idm4yxJeZgCuH2BY/72rSaz
oduzH3F3g3pefl69twxZFW9ETQIDAQABo0AwPjAJBgNVHRMEAjAAMAsGA1UdDwQE
AwIDuDATBgNVHSUEDDAKBggrBgEFBQcDATAPBgNVHREECDAGhwTAqABoMA0GCSqG
SIb3DQEBCwUAA4ICAQB031cL/Q5l31sCH65N0b9NE9CqpPSzVLO8GWhkwWD8jGHK
uVLWSgQI7SAfEt+kFYyCFdTcgJBfh2tS6PRg5In3umr55O4LtE9IjgeUXHNCVGpb
aiu1uAnGgqGNwpYfCBG7y5xKVUAdQAgJ7FxV1JZiStO9Gq7jK+y2QDhixV+sccWe
LPwKYY+cG0SCMoAuPCpu4EXqKszCWYP6nfsS61huyboWJTbBd7mee4cVHUp1FDbX
F3qrqmA+yed2o4flLGVl56LAcUXxOvOziphokJGQjVV9YN2g6V5GTmp6L2abFWFc
OzCC45NWEuzTqpcFxL8pGV+6thpXuytYFU8DUCGE2aLBfYxA/0tupLq1A+fy4BC2
uoxqTKRmhujKzMTbqgRY4lh+GMWgoai2NGUUooS5gXzG5/qTc6kOWVPGn06oh5hS
I8qLlXyzuyaT7xQ/1fVVOTgo05q0xBySLfrO1W41yrfQPxA2+f+WZA4KjI7Sw5FX
YL3lvBSuKCS3LU9hg8M/8bNnTZTTr6YUThQmATNGSZq/+v/V3iC3YtLvoii7LmQI
5VrVbb5azwzagljBuLtJovq7qWsmB9ak1lhMj080YixQiH0Sq/ZfsY9H/82/2oIT
/JV1jestlE8y8e/ZDMVBmPart8kwg7DmrUzh0WFZX5oTCtUh/2rkVwhMiLXlDA==
-----END CERTIFICATE-----
