Certificate:
    Data:
        Version: 3 (0x2)
        Serial Number: 33058 (0x8122)
    Signature Algorithm: sha256WithRSAEncryption
        Issuer: C=AU, ST=ACT, L=Canberra, O=Exobrain Test, OU=Test, CN=Exobrain Test Root
        Validity
            Not Before: Nov  8 11:25:01 2016 GMT
            Not After : Nov  6 11:25:01 2026 GMT
        Subject: C=AU, ST=ACT, O=Exobrain Test, OU=Test, CN=server
        Subject Public Key Info:
            Public Key Algorithm: rsaEncryption
                Public-Key: (2048 bit)
                Modulus:
                    00:e8:1a:b6:14:8c:c8:1a:60:11:d5:0f:2f:ab:27:
                    54:c1:9b:10:33:8c:9d:91:30:25:32:27:02:e0:51:
                    be:d8:fa:99:72:d2:7b:1a:af:9f:50:0a:f7:44:d6:
                    27:7e:19:d0:fb:9b:3d:86:eb:6e:47:82:87:9e:2f:
                    e6:68:84:07:7f:b0:14:2b:4f:5d:d6:61:52:57:c8:
                    cd:43:18:ee:21:c0:66:bc:5c:e9:d2:70:b8:81:1a:
                    cd:55:82:00:7b:b3:bc:03:d9:b4:49:fc:22:51:77:
                    c9:a2:13:d8:b2:00:70:d8:4f:c5:e4:68:99:c4:36:
                    b5:c0:3c:2f:fa:c2:68:a1:68:41:48:c9:85:bf:6e:
                    6f:92:c9:f6:17:fe:27:ab:a4:cd:68:65:45:d1:d7:
                    a9:79:71:e3:af:d9:d1:4c:0b:a5:dc:bf:52:79:6c:
                    63:e1:2c:1b:d7:2e:f0:53:26:b5:fb:7b:43:6d:7a:
                    70:b5:21:84:39:00:97:c3:37:48:29:94:d1:be:2b:
                    2d:78:f4:f7:5e:01:9e:f2:69:50:75:4c:9a:f7:7d:
                    fd:f1:a0:ab:f7:c7:ad:4d:70:72:dd:85:58:bd:df:
                    a6:78:ed:30:11:45:30:a6:b3:9a:09:ba:27:43:ef:
                    5e:65:e3:df:9c:e1:2b:8c:f4:f0:6c:d2:ef:d4:1c:
                    b8:d7
                Exponent: 65537 (0x10001)
        X509v3 extensions:
            X509v3 Basic Constraints: 
                CA:FALSE
            Netscape Comment: 
                OpenSSL Generated Certificate
            X509v3 Subject Key Identifier: 
                6D:EC:B6:77:2F:D5:70:84:66:4D:DB:9C:4A:BC:05:C7:C4:FC:32:A9
            X509v3 Authority Key Identifier: 
                keyid:96:78:E7:19:82:B8:DC:FC:6E:57:04:3B:DC:0A:4D:7F:DF:95:4B:90

    Signature Algorithm: sha256WithRSAEncryption
         23:c8:eb:58:51:29:20:db:0b:ee:b1:f6:83:70:5e:d5:e5:1f:
         f4:b2:ad:47:fd:56:3f:33:3d:f2:4a:b6:8f:72:48:5a:6b:99:
         3c:07:9e:38:da:85:4d:df:45:ed:4c:53:17:91:42:29:97:49:
         4a:45:7a:a0:c2:a6:33:44:b3:1c:33:61:37:ed:46:74:cc:2a:
         95:e3:e4:01:8e:76:54:07:b1:02:d4:09:e5:c8:33:db:e1:4c:
         13:7a:85:24:3e:8b:51:5b:49:02:6d:1c:4c:f7:5d:1f:fe:64:
         4c:2e:f7:f5:0e:4c:6f:0e:93:2f:24:3f:b5:12:23:70:d1:9b:
         03:59:02:44:bb:74:a8:c6:d4:2d:87:47:fe:04:39:bd:47:72:
         e4:91:10:77:66:68:5d:67:98:a6:51:19:a1:1e:7f:44:0a:79:
         46:8e:8a:c2:de:e3:f3:f3:bb:b3:3c:50:22:8b:c6:d8:12:c8:
         ed:00:dd:88:41:22:0a:83:13:54:05:1c:ec:b5:65:2f:98:ff:
         fd:37:44:d3:50:90:26:d2:65:52:3c:3b:0e:c1:6a:db:67:7e:
         6c:b4:47:b1:ac:1d:ed:9f:7f:5b:00:72:5d:bc:d2:56:09:c3:
         cc:5d:b4:f6:0b:42:86:11:d9:79:c9:4f:88:94:47:1c:e2:23:
         a8:2b:2a:90:aa:81:95:88:79:45:0d:4e:87:75:47:44:6e:67:
         06:f8:6d:80:6b:2f:0b:0b:eb:0d:8b:87:8b:81:76:87:92:40:
         c4:ed:3d:f6:63:90:04:05:12:87:8a:92:8f:10:c9:f5:34:8d:
         7b:1f:c8:7a:ea:86:ab:51:f6:74:54:b9:35:65:31:8c:f5:4f:
         58:2c:a9:14:df:e3:0a:e9:c7:07:7d:98:36:8b:dd:0c:30:6b:
         14:da:b9:27:a8:f6:c0:3c:f6:ef:33:7d:d0:cf:b7:a0:9d:a3:
         32:54:f5:b6:3a:67:b5:fa:04:39:d2:39:81:e7:b5:06:37:83:
         3c:78:ea:95:8c:ac:e8:54:1c:f9:89:7d:7c:d9:52:08:37:1c:
         59:c1:bf:96:87:3d:9a:34:07:67:70:74:cc:0f:c8:03:a2:c3:
         7b:ee:71:36:33:dd:40:b8:6d:9b:3b:b9:da:47:ad:f2:61:9e:
         f1:81:03:30:5c:6e:0f:c5:4f:0f:4e:e1:87:e9:ca:d9:6c:de:
         9c:dc:7d:45:ec:c7:cd:42:c3:52:95:4b:24:9c:8a:1e:d7:db:
         8e:40:27:e0:68:95:c7:fa:3f:2c:0c:e1:1d:3f:78:16:a9:95:
         5c:b4:c8:eb:ff:ff:9e:20:15:90:e6:28:39:2e:c7:9d:d4:8f:
         ab:b6:01:27:3c:a5:63:38
-----BEGIN CERTIFICATE-----
MIIEvTCCAqWgAwIBAgIDAIEiMA0GCSqGSIb3DQEBCwUAMHIxCzAJBgNVBAYTAkFV
MQwwCgYDVQQIDANBQ1QxETAPBgNVBAcMCENhbmJlcnJhMRYwFAYDVQQKDA1FeG9i
cmFpbiBUZXN0MQ0wCwYDVQQLDARUZXN0MRswGQYDVQQDDBJFeG9icmFpbiBUZXN0
IFJvb3QwHhcNMTYxMTA4MTEyNTAxWhcNMjYxMTA2MTEyNTAxWjBTMQswCQYDVQQG
EwJBVTEMMAoGA1UECAwDQUNUMRYwFAYDVQQKDA1FeG9icmFpbiBUZXN0MQ0wCwYD
VQQLDARUZXN0MQ8wDQYDVQQDDAZzZXJ2ZXIwggEiMA0GCSqGSIb3DQEBAQUAA4IB
DwAwggEKAoIBAQDoGrYUjMgaYBHVDy+rJ1TBmxAzjJ2RMCUyJwLgUb7Y+ply0nsa
r59QCvdE1id+GdD7mz2G625HgoeeL+ZohAd/sBQrT13WYVJXyM1DGO4hwGa8XOnS
cLiBGs1VggB7s7wD2bRJ/CJRd8miE9iyAHDYT8XkaJnENrXAPC/6wmihaEFIyYW/
bm+SyfYX/ierpM1oZUXR16l5ceOv2dFMC6Xcv1J5bGPhLBvXLvBTJrX7e0NtenC1
IYQ5AJfDN0gplNG+Ky149PdeAZ7yaVB1TJr3ff3xoKv3x61NcHLdhVi936Z47TAR
RTCms5oJuidD715l49+c4SuM9PBs0u/UHLjXAgMBAAGjezB5MAkGA1UdEwQCMAAw
LAYJYIZIAYb4QgENBB8WHU9wZW5TU0wgR2VuZXJhdGVkIENlcnRpZmljYXRlMB0G
A1UdDgQWBBRt7LZ3L9VwhGZN25xKvAXHxPwyqTAfBgNVHSMEGDAWgBSWeOcZgrjc
/G5XBDvcCk1/35VLkDANBgkqhkiG9w0BAQsFAAOCAgEAI8jrWFEpINsL7rH2g3Be
1eUf9LKtR/1WPzM98kq2j3JIWmuZPAeeONqFTd9F7UxTF5FCKZdJSkV6oMKmM0Sz
HDNhN+1GdMwqlePkAY52VAexAtQJ5cgz2+FME3qFJD6LUVtJAm0cTPddH/5kTC73
9Q5Mbw6TLyQ/tRIjcNGbA1kCRLt0qMbULYdH/gQ5vUdy5JEQd2ZoXWeYplEZoR5/
RAp5Ro6Kwt7j8/O7szxQIovG2BLI7QDdiEEiCoMTVAUc7LVlL5j//TdE01CQJtJl
Ujw7DsFq22d+bLRHsawd7Z9/WwByXbzSVgnDzF209gtChhHZeclPiJRHHOIjqCsq
kKqBlYh5RQ1Oh3VHRG5nBvhtgGsvCwvrDYuHi4F2h5JAxO099mOQBAUSh4qSjxDJ
9TSNex/IeuqGq1H2dFS5NWUxjPVPWCypFN/jCunHB32YNovdDDBrFNq5J6j2wDz2
7zN90M+3oJ2jMlT1tjpntfoEOdI5gee1BjeDPHjqlYys6FQc+Yl9fNlSCDccWcG/
loc9mjQHZ3B0zA/IA6LDe+5xNjPdQLhtmzu52ket8mGe8YEDMFxuD8VPD07hh+nK
2WzenNx9RezHzULDUpVLJJyKHtfbjkAn4GiVx/o/LAzhHT94FqmVXLTI6///niAV
kOYoOS7HndSPq7YBJzylYzg=
-----END CERTIFICATE-----
