Certificate:
    Data:
        Version: 3 (0x2)
        Serial Number: 29382 (0x72c6)
    Signature Algorithm: sha256WithRSAEncryption
        Issuer: C=AU, ST=ACT, L=Canberra, O=Exobrain, OU=Testing, CN=CA
        Validity
            Not Before: Dec 13 13:12:02 2016 GMT
            Not After : Dec 13 13:12:02 2017 GMT
        Subject: C=AU, ST=ACT, O=Exobrain, OU=Testing, CN=server_from_ui
        Subject Public Key Info:
            Public Key Algorithm: rsaEncryption
                Public-Key: (2048 bit)
                Modulus:
                    00:ae:29:f1:65:27:7b:bb:d5:ae:c8:3f:90:ee:e6:
                    57:bf:04:0a:de:da:9e:37:cc:e9:e6:d8:6f:31:88:
                    22:e9:7e:90:62:a1:29:c3:12:cb:c7:3d:53:41:ec:
                    5f:98:2f:59:a2:a0:78:d6:ce:6c:ed:c6:40:ba:26:
                    3f:65:31:93:ce:00:0e:38:d0:61:11:98:02:86:dd:
                    45:29:f2:07:05:eb:2f:f5:f8:ab:aa:9d:c5:71:3e:
                    d6:43:e1:1f:04:41:93:a6:c0:34:b1:be:b1:8f:0b:
                    12:ed:1a:b7:ab:67:29:4b:a7:b2:74:3f:29:de:31:
                    3f:3f:f9:ed:a2:c6:a4:b4:98:22:aa:1d:1b:03:f5:
                    06:5b:bb:ce:e2:06:76:02:84:6f:75:26:24:9b:06:
                    e1:e6:74:48:83:93:a0:93:97:07:16:21:e5:2f:0a:
                    ec:ba:93:bd:54:9b:4c:6a:60:53:1e:70:f8:91:19:
                    d1:b6:b9:1c:c1:d9:36:b8:77:cc:d9:0d:a2:ec:59:
                    f0:1a:4d:36:4a:ad:fe:7b:42:9c:d8:fe:9b:59:9d:
                    89:82:a2:8c:d8:6e:d2:71:ea:f1:6e:0a:cc:f0:53:
                    9b:ca:d6:d2:12:d9:bc:48:b3:bc:3d:4a:99:62:fb:
                    7e:75:54:76:5f:24:5f:74:57:44:8d:01:2e:b1:0c:
                    16:fb
                Exponent: 65537 (0x10001)
        X509v3 extensions:
            X509v3 Basic Constraints: 
                CA:FALSE
            X509v3 Key Usage: 
                Digital Signature, Key Encipherment, Data Encipherment, Key Agreement
            X509v3 Extended Key Usage: 
                TLS Web Server Authentication
            X509v3 Subject Alternative Name: 
                IP Address:192.168.0.104
    Signature Algorithm: sha256WithRSAEncryption
         48:0f:00:de:c3:4e:57:4a:ca:a6:1f:85:83:02:8a:b8:90:14:
         ac:7f:87:fe:52:8d:4e:70:e1:a0:ec:da:27:17:73:47:7d:25:
         41:8e:cb:ac:93:df:a5:d3:c4:83:2c:90:b3:55:7e:33:00:c7:
         4f:93:b7:7e:66:fe:3a:ea:1e:a8:08:31:29:df:c4:18:b3:79:
         dd:b5:45:38:21:5d:a3:0c:82:ef:f2:a6:92:69:82:d3:0f:f3:
         46:f8:bd:84:e1:05:34:62:3b:67:51:c5:be:1c:63:72:98:69:
         7e:5f:ec:99:dc:33:f7:9d:9a:e3:2a:ea:e7:33:1a:6d:e6:4d:
         70:0d:e8:33:28:03:36:8d:9f:db:1b:94:c8:f1:af:15:82:36:
         5b:ae:67:48:f4:3f:bd:1c:24:29:ab:8b:7c:ed:b3:10:0b:5f:
         e8:6c:da:dc:58:0b:7a:d9:d7:9a:92:a3:f5:4b:0c:18:75:1f:
         25:9b:54:4c:83:26:83:f8:15:c5:13:76:a7:93:d3:a3:88:5e:
         0b:ef:d2:ed:ff:9a:ff:71:1f:7b:a7:1f:27:24:a9:4a:c3:7d:
         de:66:8f:93:33:f8:11:d1:c2:d9:b9:5c:8d:b0:6f:92:8b:e2:
         a9:40:0e:9a:4a:d1:a5:ba:6f:7f:49:66:75:d5:aa:3a:9f:c5:
         8d:7b:d5:e1:ce:b9:4f:02:7f:4b:a8:9c:38:a3:50:32:5f:62:
         5e:56:3c:70:e1:96:f5:fb:ce:29:57:3d:e3:aa:4d:d4:69:2a:
         e9:1b:c3:eb:69:fb:a9:cc:df:4f:f1:93:82:df:b8:cc:2f:f8:
         7d:da:c7:48:50:9f:21:39:d0:a8:55:45:cd:a8:1e:df:2f:6a:
         9b:dc:5d:db:1e:65:1d:9a:4b:e3:82:56:88:08:f3:4e:9b:8a:
         42:dc:1b:ae:bf:8e:5e:a8:7f:5a:9a:5a:6e:9f:23:34:0c:01:
         4a:6c:6d:0b:a1:f4:0f:2b:c4:a5:d2:85:f1:b5:41:a6:bc:53:
         a5:06:7c:95:42:d4:3d:30:dc:b5:ee:fb:33:5b:6c:0f:dd:66:
         8f:55:15:2e:2e:91:92:7f:5b:2c:23:81:ac:06:33:46:48:f2:
         98:df:b6:56:3b:02:aa:6c:04:e2:f8:d6:5e:79:a8:50:2c:3e:
         11:df:59:29:9a:41:5d:80:9d:f3:6f:c1:20:3d:70:dc:31:24:
         64:b4:43:91:78:2f:3e:c9:17:f5:59:ec:98:95:6d:ad:a9:42:
         7a:07:87:57:3e:3c:a3:bc:c4:cd:80:50:e9:67:d5:10:49:a7:
         40:82:e9:d3:98:b1:64:03:53:39:c0:45:9f:87:68:41:f8:f1:
         90:27:67:b0:4a:9b:ef:a8
-----BEGIN CERTIFICATE-----
MIIEdTCCAl2gAwIBAgICcsYwDQYJKoZIhvcNAQELBQAwYDELMAkGA1UEBhMCQVUx
DDAKBgNVBAgMA0FDVDERMA8GA1UEBwwIQ2FuYmVycmExETAPBgNVBAoMCEV4b2Jy
YWluMRAwDgYDVQQLDAdUZXN0aW5nMQswCQYDVQQDDAJDQTAeFw0xNjEyMTMxMzEy
MDJaFw0xNzEyMTMxMzEyMDJaMFkxCzAJBgNVBAYTAkFVMQwwCgYDVQQIDANBQ1Qx
ETAPBgNVBAoMCEV4b2JyYWluMRAwDgYDVQQLDAdUZXN0aW5nMRcwFQYDVQQDDA5z
ZXJ2ZXJfZnJvbV91aTCCASIwDQYJKoZIhvcNAQEBBQADggEPADCCAQoCggEBAK4p
8WUne7vVrsg/kO7mV78ECt7anjfM6ebYbzGIIul+kGKhKcMSy8c9U0HsX5gvWaKg
eNbObO3GQLomP2Uxk84ADjjQYRGYAobdRSnyBwXrL/X4q6qdxXE+1kPhHwRBk6bA
NLG+sY8LEu0at6tnKUunsnQ/Kd4xPz/57aLGpLSYIqodGwP1Blu7zuIGdgKEb3Um
JJsG4eZ0SIOToJOXBxYh5S8K7LqTvVSbTGpgUx5w+JEZ0ba5HMHZNrh3zNkNouxZ
8BpNNkqt/ntCnNj+m1mdiYKijNhu0nHq8W4KzPBTm8rW0hLZvEizvD1KmWL7fnVU
dl8kX3RXRI0BLrEMFvsCAwEAAaNAMD4wCQYDVR0TBAIwADALBgNVHQ8EBAMCA7gw
EwYDVR0lBAwwCgYIKwYBBQUHAwEwDwYDVR0RBAgwBocEwKgAaDANBgkqhkiG9w0B
AQsFAAOCAgEASA8A3sNOV0rKph+FgwKKuJAUrH+H/lKNTnDhoOzaJxdzR30lQY7L
rJPfpdPEgyyQs1V+MwDHT5O3fmb+OuoeqAgxKd/EGLN53bVFOCFdowyC7/KmkmmC
0w/zRvi9hOEFNGI7Z1HFvhxjcphpfl/smdwz952a4yrq5zMabeZNcA3oMygDNo2f
2xuUyPGvFYI2W65nSPQ/vRwkKauLfO2zEAtf6Gza3FgLetnXmpKj9UsMGHUfJZtU
TIMmg/gVxRN2p5PTo4heC+/S7f+a/3Efe6cfJySpSsN93maPkzP4EdHC2blcjbBv
koviqUAOmkrRpbpvf0lmddWqOp/FjXvV4c65TwJ/S6icOKNQMl9iXlY8cOGW9fvO
KVc946pN1Gkq6RvD62n7qczfT/GTgt+4zC/4fdrHSFCfITnQqFVFzage3y9qm9xd
2x5lHZpL44JWiAjzTpuKQtwbrr+OXqh/Wppabp8jNAwBSmxtC6H0DyvEpdKF8bVB
prxTpQZ8lULUPTDcte77M1tsD91mj1UVLi6Rkn9bLCOBrAYzRkjymN+2VjsCqmwE
4vjWXnmoUCw+Ed9ZKZpBXYCd82/BID1w3DEkZLRDkXgvPskX9VnsmJVtralCegeH
Vz48o7zEzYBQ6WfVEEmnQILp05ixZANTOcBFn4doQfjxkCdnsEqb76g=
-----END CERTIFICATE-----
