Certificate:
    Data:
        Version: 3 (0x2)
        Serial Number: 25576 (0x63e8)
    Signature Algorithm: sha256WithRSAEncryption
        Issuer: C=AU, ST=ACT, L=Canberra, O=Exobrain, OU=Testing, CN=CA
        Validity
            Not Before: Dec 13 13:12:03 2016 GMT
            Not After : Dec 13 13:12:03 2017 GMT
        Subject: C=AU, ST=ACT, O=Exobrain, OU=Testing, CN=server
        Subject Public Key Info:
            Public Key Algorithm: rsaEncryption
                Public-Key: (2048 bit)
                Modulus:
                    00:b4:6b:d9:01:d2:da:05:a2:a9:e3:ba:dc:3e:e0:
                    24:f7:46:8c:83:64:54:bf:74:2e:b2:32:0f:e5:65:
                    15:7a:30:01:53:ac:e7:db:e4:73:e5:be:8b:52:05:
                    15:d1:12:3c:07:09:39:a0:3a:79:26:04:0b:46:4a:
                    f4:88:25:f5:12:10:6b:98:68:70:93:3d:e0:3c:9a:
                    d8:7f:87:92:f7:b1:64:3b:c3:70:93:6d:92:e6:98:
                    a9:4c:5c:f4:2f:2f:d0:8f:aa:3b:96:92:06:d9:a0:
                    55:f6:94:8c:79:d9:a1:49:29:bd:87:a9:67:d7:ab:
                    3e:14:18:82:85:9e:3e:f9:f7:41:d9:e4:a1:cc:c0:
                    73:2c:b8:3f:f7:59:45:a9:86:88:f9:67:d9:f2:a7:
                    89:88:53:a1:78:41:25:3b:62:7b:c9:e6:3e:94:84:
                    fa:ee:24:e9:3e:2b:f9:40:d2:e1:b6:63:f4:94:d9:
                    a8:25:2f:a8:aa:96:4c:85:1e:aa:94:58:75:64:62:
                    ed:97:97:57:c4:e3:ac:71:4e:8e:bd:98:53:6b:4c:
                    3a:af:da:18:ac:ab:81:e8:84:08:04:49:b7:17:9b:
                    7d:c2:16:79:ff:33:f0:e8:64:aa:9a:be:6e:85:0f:
                    f0:a6:ad:d0:f2:2a:6e:c6:8a:1e:15:5b:c8:51:c5:
                    5d:1b
                Exponent: 65537 (0x10001)
        X509v3 extensions:
            X509v3 Basic Constraints: 
                CA:FALSE
            X509v3 Key Usage: 
                Digital Signature, Key Encipherment, Data Encipherment, Key Agreement
            X509v3 Extended Key Usage: 
                TLS Web Client Authentication, TLS Web Server Authentication
            X509v3 Subject Alternative Name: 
                IP Address:192.168.0.104
    Signature Algorithm: sha256WithRSAEncryption
         31:a7:2f:53:0f:ab:8e:75:5f:5d:50:b7:58:95:a2:ff:16:58:
         34:01:0e:02:84:25:22:08:3b:30:1e:62:f9:c4:37:a9:7a:f4:
         41:df:f8:af:ec:81:01:bf:c7:ee:09:1e:fd:2a:5e:3a:46:25:
         a4:1a:5b:e3:1c:10:bc:85:d8:4e:40:8c:d0:78:84:26:19:a4:
         ce:fd:51:6b:00:a2:ee:63:d1:40:1d:51:7f:ad:81:87:3d:73:
         51:3e:fa:81:a1:21:09:dd:c6:7b:52:20:d3:8d:ce:78:af:66:
         b5:aa:03:1b:35:bf:63:e7:03:35:db:22:ab:32:65:99:84:23:
         78:3e:24:78:96:db:20:39:de:1f:15:5d:5b:3c:29:16:7c:f0:
         f0:11:c0:97:af:65:34:51:8f:c4:c6:c4:9b:32:f0:f4:f3:6d:
         3f:c0:92:16:f7:d3:a1:68:68:d9:04:38:05:db:a3:b4:7c:fc:
         9c:65:8d:57:b2:bf:93:0e:8f:ed:75:0a:fd:92:32:1c:83:d3:
         da:c4:f3:90:02:9a:9e:f5:48:4b:0d:fc:8d:70:45:05:b2:9d:
         ae:3c:92:57:6c:59:9b:d5:14:ac:22:a4:06:c8:36:29:62:fe:
         46:4e:f9:42:9a:0a:f4:0b:52:81:92:c5:b0:9e:c8:d7:1b:da:
         27:4a:02:ae:02:f9:83:51:e9:51:bb:a9:1f:2f:ae:54:a1:86:
         41:65:81:d1:e9:58:c9:2b:32:b3:b8:27:88:11:19:28:62:a2:
         1e:d9:fa:96:07:c2:86:94:d5:d0:1d:e0:cb:7b:ac:1f:19:27:
         58:20:ee:59:4f:d4:48:41:10:b3:ab:73:32:f2:52:c6:b0:5f:
         bd:e6:df:3d:7b:b2:2b:29:14:41:54:19:14:b4:7a:2d:ef:39:
         48:d9:66:5b:11:d2:4a:af:b4:be:e0:42:17:64:fc:68:12:23:
         58:98:7e:58:26:8e:7d:9c:bd:07:2e:4c:f4:1a:42:f2:74:fd:
         0f:58:2c:56:3e:eb:de:d2:d2:97:02:c8:9c:a8:6b:08:8c:65:
         c4:b8:a6:2b:3e:04:9d:51:f2:3d:64:97:29:2c:52:c9:e9:44:
         9c:29:f1:f6:5c:03:44:6a:89:fb:ea:ab:34:48:b8:ea:31:1c:
         4b:0d:a2:11:60:3b:91:49:e3:3c:89:6d:0a:33:b9:54:3e:d0:
         34:23:d6:a9:f6:5d:5e:a8:96:2d:c8:cd:4c:05:a3:e6:1b:fc:
         18:5d:e9:3f:f5:2c:06:c6:7e:f1:98:ac:91:d0:6a:93:b4:ef:
         14:da:9d:79:51:87:ec:fa:8e:b0:32:af:f3:0a:c6:29:39:ff:
         15:ba:9c:00:ac:9f:84:04
-----BEGIN CERTIFICATE-----
MIIEdzCCAl+gAwIBAgICY+gwDQYJKoZIhvcNAQELBQAwYDELMAkGA1UEBhMCQVUx
DDAKBgNVBAgMA0FDVDERMA8GA1UEBwwIQ2FuYmVycmExETAPBgNVBAoMCEV4b2Jy
YWluMRAwDgYDVQQLDAdUZXN0aW5nMQswCQYDVQQDDAJDQTAeFw0xNjEyMTMxMzEy
MDNaFw0xNzEyMTMxMzEyMDNaMFExCzAJBgNVBAYTAkFVMQwwCgYDVQQIDANBQ1Qx
ETAPBgNVBAoMCEV4b2JyYWluMRAwDgYDVQQLDAdUZXN0aW5nMQ8wDQYDVQQDDAZz
ZXJ2ZXIwggEiMA0GCSqGSIb3DQEBAQUAA4IBDwAwggEKAoIBAQC0a9kB0toFoqnj
utw+4CT3RoyDZFS/dC6yMg/lZRV6MAFTrOfb5HPlvotSBRXREjwHCTmgOnkmBAtG
SvSIJfUSEGuYaHCTPeA8mth/h5L3sWQ7w3CTbZLmmKlMXPQvL9CPqjuWkgbZoFX2
lIx52aFJKb2HqWfXqz4UGIKFnj7590HZ5KHMwHMsuD/3WUWphoj5Z9nyp4mIU6F4
QSU7YnvJ5j6UhPruJOk+K/lA0uG2Y/SU2aglL6iqlkyFHqqUWHVkYu2Xl1fE46xx
To69mFNrTDqv2hisq4HohAgESbcXm33CFnn/M/DoZKqavm6FD/CmrdDyKm7Gih4V
W8hRxV0bAgMBAAGjSjBIMAkGA1UdEwQCMAAwCwYDVR0PBAQDAgO4MB0GA1UdJQQW
MBQGCCsGAQUFBwMCBggrBgEFBQcDATAPBgNVHREECDAGhwTAqABoMA0GCSqGSIb3
DQEBCwUAA4ICAQAxpy9TD6uOdV9dULdYlaL/Flg0AQ4ChCUiCDswHmL5xDepevRB
3/iv7IEBv8fuCR79Kl46RiWkGlvjHBC8hdhOQIzQeIQmGaTO/VFrAKLuY9FAHVF/
rYGHPXNRPvqBoSEJ3cZ7UiDTjc54r2a1qgMbNb9j5wM12yKrMmWZhCN4PiR4ltsg
Od4fFV1bPCkWfPDwEcCXr2U0UY/ExsSbMvD0820/wJIW99OhaGjZBDgF26O0fPyc
ZY1Xsr+TDo/tdQr9kjIcg9PaxPOQApqe9UhLDfyNcEUFsp2uPJJXbFmb1RSsIqQG
yDYpYv5GTvlCmgr0C1KBksWwnsjXG9onSgKuAvmDUelRu6kfL65UoYZBZYHR6VjJ
KzKzuCeIERkoYqIe2fqWB8KGlNXQHeDLe6wfGSdYIO5ZT9RIQRCzq3My8lLGsF+9
5t89e7IrKRRBVBkUtHot7zlI2WZbEdJKr7S+4EIXZPxoEiNYmH5YJo59nL0HLkz0
GkLydP0PWCxWPuve0tKXAsicqGsIjGXEuKYrPgSdUfI9ZJcpLFLJ6UScKfH2XANE
aon76qs0SLjqMRxLDaIRYDuRSeM8iW0KM7lUPtA0I9ap9l1eqJYtyM1MBaPmG/wY
Xek/9SwGxn7xmKyR0GqTtO8U2p15UYfs+o6wMq/zCsYpOf8VupwArJ+EBA==
-----END CERTIFICATE-----
